
vul:     file format elf32-i386


Disassembly of section .init:

08048360 <_init>:
 8048360:	53                   	push   ebx
 8048361:	83 ec 08             	sub    esp,0x8
 8048364:	e8 c7 00 00 00       	call   8048430 <__x86.get_pc_thunk.bx>
 8048369:	81 c3 97 1c 00 00    	add    ebx,0x1c97
 804836f:	8b 83 fc ff ff ff    	mov    eax,DWORD PTR [ebx-0x4]
 8048375:	85 c0                	test   eax,eax
 8048377:	74 05                	je     804837e <_init+0x1e>
 8048379:	e8 42 00 00 00       	call   80483c0 <__gmon_start__@plt>
 804837e:	83 c4 08             	add    esp,0x8
 8048381:	5b                   	pop    ebx
 8048382:	c3                   	ret    

Disassembly of section .plt:

08048390 <printf@plt-0x10>:
 8048390:	ff 35 04 a0 04 08    	push   DWORD PTR ds:0x804a004
 8048396:	ff 25 08 a0 04 08    	jmp    DWORD PTR ds:0x804a008
 804839c:	00 00                	add    BYTE PTR [eax],al
	...

080483a0 <printf@plt>:
 80483a0:	ff 25 0c a0 04 08    	jmp    DWORD PTR ds:0x804a00c
 80483a6:	68 00 00 00 00       	push   0x0
 80483ab:	e9 e0 ff ff ff       	jmp    8048390 <_init+0x30>

080483b0 <fgets@plt>:
 80483b0:	ff 25 10 a0 04 08    	jmp    DWORD PTR ds:0x804a010
 80483b6:	68 08 00 00 00       	push   0x8
 80483bb:	e9 d0 ff ff ff       	jmp    8048390 <_init+0x30>

080483c0 <__gmon_start__@plt>:
 80483c0:	ff 25 14 a0 04 08    	jmp    DWORD PTR ds:0x804a014
 80483c6:	68 10 00 00 00       	push   0x10
 80483cb:	e9 c0 ff ff ff       	jmp    8048390 <_init+0x30>

080483d0 <exit@plt>:
 80483d0:	ff 25 18 a0 04 08    	jmp    DWORD PTR ds:0x804a018
 80483d6:	68 18 00 00 00       	push   0x18
 80483db:	e9 b0 ff ff ff       	jmp    8048390 <_init+0x30>

080483e0 <__libc_start_main@plt>:
 80483e0:	ff 25 1c a0 04 08    	jmp    DWORD PTR ds:0x804a01c
 80483e6:	68 20 00 00 00       	push   0x20
 80483eb:	e9 a0 ff ff ff       	jmp    8048390 <_init+0x30>

080483f0 <setvbuf@plt>:
 80483f0:	ff 25 20 a0 04 08    	jmp    DWORD PTR ds:0x804a020
 80483f6:	68 28 00 00 00       	push   0x28
 80483fb:	e9 90 ff ff ff       	jmp    8048390 <_init+0x30>

Disassembly of section .text:

08048400 <_start>:
 8048400:	31 ed                	xor    ebp,ebp
 8048402:	5e                   	pop    esi
 8048403:	89 e1                	mov    ecx,esp
 8048405:	83 e4 f0             	and    esp,0xfffffff0
 8048408:	50                   	push   eax
 8048409:	54                   	push   esp
 804840a:	52                   	push   edx
 804840b:	68 f0 85 04 08       	push   0x80485f0
 8048410:	68 80 85 04 08       	push   0x8048580
 8048415:	51                   	push   ecx
 8048416:	56                   	push   esi
 8048417:	68 fd 84 04 08       	push   0x80484fd
 804841c:	e8 bf ff ff ff       	call   80483e0 <__libc_start_main@plt>
 8048421:	f4                   	hlt    
 8048422:	66 90                	xchg   ax,ax
 8048424:	66 90                	xchg   ax,ax
 8048426:	66 90                	xchg   ax,ax
 8048428:	66 90                	xchg   ax,ax
 804842a:	66 90                	xchg   ax,ax
 804842c:	66 90                	xchg   ax,ax
 804842e:	66 90                	xchg   ax,ax

08048430 <__x86.get_pc_thunk.bx>:
 8048430:	8b 1c 24             	mov    ebx,DWORD PTR [esp]
 8048433:	c3                   	ret    
 8048434:	66 90                	xchg   ax,ax
 8048436:	66 90                	xchg   ax,ax
 8048438:	66 90                	xchg   ax,ax
 804843a:	66 90                	xchg   ax,ax
 804843c:	66 90                	xchg   ax,ax
 804843e:	66 90                	xchg   ax,ax

08048440 <deregister_tm_clones>:
 8048440:	b8 2f a0 04 08       	mov    eax,0x804a02f
 8048445:	2d 2c a0 04 08       	sub    eax,0x804a02c
 804844a:	83 f8 06             	cmp    eax,0x6
 804844d:	77 01                	ja     8048450 <deregister_tm_clones+0x10>
 804844f:	c3                   	ret    
 8048450:	b8 00 00 00 00       	mov    eax,0x0
 8048455:	85 c0                	test   eax,eax
 8048457:	74 f6                	je     804844f <deregister_tm_clones+0xf>
 8048459:	55                   	push   ebp
 804845a:	89 e5                	mov    ebp,esp
 804845c:	83 ec 18             	sub    esp,0x18
 804845f:	c7 04 24 2c a0 04 08 	mov    DWORD PTR [esp],0x804a02c
 8048466:	ff d0                	call   eax
 8048468:	c9                   	leave  
 8048469:	c3                   	ret    
 804846a:	8d b6 00 00 00 00    	lea    esi,[esi+0x0]

08048470 <register_tm_clones>:
 8048470:	b8 2c a0 04 08       	mov    eax,0x804a02c
 8048475:	2d 2c a0 04 08       	sub    eax,0x804a02c
 804847a:	c1 f8 02             	sar    eax,0x2
 804847d:	89 c2                	mov    edx,eax
 804847f:	c1 ea 1f             	shr    edx,0x1f
 8048482:	01 d0                	add    eax,edx
 8048484:	d1 f8                	sar    eax,1
 8048486:	75 01                	jne    8048489 <register_tm_clones+0x19>
 8048488:	c3                   	ret    
 8048489:	ba 00 00 00 00       	mov    edx,0x0
 804848e:	85 d2                	test   edx,edx
 8048490:	74 f6                	je     8048488 <register_tm_clones+0x18>
 8048492:	55                   	push   ebp
 8048493:	89 e5                	mov    ebp,esp
 8048495:	83 ec 18             	sub    esp,0x18
 8048498:	89 44 24 04          	mov    DWORD PTR [esp+0x4],eax
 804849c:	c7 04 24 2c a0 04 08 	mov    DWORD PTR [esp],0x804a02c
 80484a3:	ff d2                	call   edx
 80484a5:	c9                   	leave  
 80484a6:	c3                   	ret    
 80484a7:	89 f6                	mov    esi,esi
 80484a9:	8d bc 27 00 00 00 00 	lea    edi,[edi+eiz*1+0x0]

080484b0 <__do_global_dtors_aux>:
 80484b0:	80 3d 64 a0 04 08 00 	cmp    BYTE PTR ds:0x804a064,0x0
 80484b7:	75 13                	jne    80484cc <__do_global_dtors_aux+0x1c>
 80484b9:	55                   	push   ebp
 80484ba:	89 e5                	mov    ebp,esp
 80484bc:	83 ec 08             	sub    esp,0x8
 80484bf:	e8 7c ff ff ff       	call   8048440 <deregister_tm_clones>
 80484c4:	c6 05 64 a0 04 08 01 	mov    BYTE PTR ds:0x804a064,0x1
 80484cb:	c9                   	leave  
 80484cc:	f3 c3                	repz ret 
 80484ce:	66 90                	xchg   ax,ax

080484d0 <frame_dummy>:
 80484d0:	a1 10 9f 04 08       	mov    eax,ds:0x8049f10
 80484d5:	85 c0                	test   eax,eax
 80484d7:	74 1f                	je     80484f8 <frame_dummy+0x28>
 80484d9:	b8 00 00 00 00       	mov    eax,0x0
 80484de:	85 c0                	test   eax,eax
 80484e0:	74 16                	je     80484f8 <frame_dummy+0x28>
 80484e2:	55                   	push   ebp
 80484e3:	89 e5                	mov    ebp,esp
 80484e5:	83 ec 18             	sub    esp,0x18
 80484e8:	c7 04 24 10 9f 04 08 	mov    DWORD PTR [esp],0x8049f10
 80484ef:	ff d0                	call   eax
 80484f1:	c9                   	leave  
 80484f2:	e9 79 ff ff ff       	jmp    8048470 <register_tm_clones>
 80484f7:	90                   	nop
 80484f8:	e9 73 ff ff ff       	jmp    8048470 <register_tm_clones>

080484fd <main>:
 80484fd:	55                   	push   ebp
 80484fe:	89 e5                	mov    ebp,esp
 8048500:	83 e4 f0             	and    esp,0xfffffff0
 8048503:	81 ec e0 00 00 00    	sub    esp,0xe0
 8048509:	65 a1 14 00 00 00    	mov    eax,gs:0x14
 804850f:	89 84 24 dc 00 00 00 	mov    DWORD PTR [esp+0xdc],eax
 8048516:	31 c0                	xor    eax,eax
 8048518:	a1 60 a0 04 08       	mov    eax,ds:0x804a060
 804851d:	c7 44 24 0c 00 00 00 	mov    DWORD PTR [esp+0xc],0x0
 8048524:	00 
 8048525:	c7 44 24 08 02 00 00 	mov    DWORD PTR [esp+0x8],0x2
 804852c:	00 
 804852d:	c7 44 24 04 00 00 00 	mov    DWORD PTR [esp+0x4],0x0
 8048534:	00 
 8048535:	89 04 24             	mov    DWORD PTR [esp],eax
 8048538:	e8 b3 fe ff ff       	call   80483f0 <setvbuf@plt>
 804853d:	eb 0c                	jmp    804854b <main+0x4e>
 804853f:	8d 44 24 14          	lea    eax,[esp+0x14]
 8048543:	89 04 24             	mov    DWORD PTR [esp],eax
 8048546:	e8 55 fe ff ff       	call   80483a0 <printf@plt>
 804854b:	a1 40 a0 04 08       	mov    eax,ds:0x804a040
 8048550:	89 44 24 08          	mov    DWORD PTR [esp+0x8],eax
 8048554:	c7 44 24 04 c8 00 00 	mov    DWORD PTR [esp+0x4],0xc8
 804855b:	00 
 804855c:	8d 44 24 14          	lea    eax,[esp+0x14]
 8048560:	89 04 24             	mov    DWORD PTR [esp],eax
 8048563:	e8 48 fe ff ff       	call   80483b0 <fgets@plt>
 8048568:	85 c0                	test   eax,eax
 804856a:	75 d3                	jne    804853f <main+0x42>
 804856c:	c7 04 24 00 00 00 00 	mov    DWORD PTR [esp],0x0
 8048573:	e8 58 fe ff ff       	call   80483d0 <exit@plt>
 8048578:	66 90                	xchg   ax,ax
 804857a:	66 90                	xchg   ax,ax
 804857c:	66 90                	xchg   ax,ax
 804857e:	66 90                	xchg   ax,ax

08048580 <__libc_csu_init>:
 8048580:	55                   	push   ebp
 8048581:	57                   	push   edi
 8048582:	31 ff                	xor    edi,edi
 8048584:	56                   	push   esi
 8048585:	53                   	push   ebx
 8048586:	e8 a5 fe ff ff       	call   8048430 <__x86.get_pc_thunk.bx>
 804858b:	81 c3 75 1a 00 00    	add    ebx,0x1a75
 8048591:	83 ec 1c             	sub    esp,0x1c
 8048594:	8b 6c 24 30          	mov    ebp,DWORD PTR [esp+0x30]
 8048598:	8d b3 0c ff ff ff    	lea    esi,[ebx-0xf4]
 804859e:	e8 bd fd ff ff       	call   8048360 <_init>
 80485a3:	8d 83 08 ff ff ff    	lea    eax,[ebx-0xf8]
 80485a9:	29 c6                	sub    esi,eax
 80485ab:	c1 fe 02             	sar    esi,0x2
 80485ae:	85 f6                	test   esi,esi
 80485b0:	74 27                	je     80485d9 <__libc_csu_init+0x59>
 80485b2:	8d b6 00 00 00 00    	lea    esi,[esi+0x0]
 80485b8:	8b 44 24 38          	mov    eax,DWORD PTR [esp+0x38]
 80485bc:	89 2c 24             	mov    DWORD PTR [esp],ebp
 80485bf:	89 44 24 08          	mov    DWORD PTR [esp+0x8],eax
 80485c3:	8b 44 24 34          	mov    eax,DWORD PTR [esp+0x34]
 80485c7:	89 44 24 04          	mov    DWORD PTR [esp+0x4],eax
 80485cb:	ff 94 bb 08 ff ff ff 	call   DWORD PTR [ebx+edi*4-0xf8]
 80485d2:	83 c7 01             	add    edi,0x1
 80485d5:	39 f7                	cmp    edi,esi
 80485d7:	75 df                	jne    80485b8 <__libc_csu_init+0x38>
 80485d9:	83 c4 1c             	add    esp,0x1c
 80485dc:	5b                   	pop    ebx
 80485dd:	5e                   	pop    esi
 80485de:	5f                   	pop    edi
 80485df:	5d                   	pop    ebp
 80485e0:	c3                   	ret    
 80485e1:	eb 0d                	jmp    80485f0 <__libc_csu_fini>
 80485e3:	90                   	nop
 80485e4:	90                   	nop
 80485e5:	90                   	nop
 80485e6:	90                   	nop
 80485e7:	90                   	nop
 80485e8:	90                   	nop
 80485e9:	90                   	nop
 80485ea:	90                   	nop
 80485eb:	90                   	nop
 80485ec:	90                   	nop
 80485ed:	90                   	nop
 80485ee:	90                   	nop
 80485ef:	90                   	nop

080485f0 <__libc_csu_fini>:
 80485f0:	f3 c3                	repz ret 

Disassembly of section .fini:

080485f4 <_fini>:
 80485f4:	53                   	push   ebx
 80485f5:	83 ec 08             	sub    esp,0x8
 80485f8:	e8 33 fe ff ff       	call   8048430 <__x86.get_pc_thunk.bx>
 80485fd:	81 c3 03 1a 00 00    	add    ebx,0x1a03
 8048603:	83 c4 08             	add    esp,0x8
 8048606:	5b                   	pop    ebx
 8048607:	c3                   	ret    
